target datalayout = "e-m:e-p270:32:32-p271:32:32-p272:64:64-i64:64-i128:128-f80:128-n8:16:32:64-S128"
target triple = "x86_64-pc-linux-gnu"

%class.TestData = type { ptr, ptr, ptr, ptr, ptr, i32, i32, i32, i32 }
%class.RBTestData = type { %class.TestData, ptr, ptr, ptr, ptr }

@_ZTV8TestData = unnamed_addr constant { [7 x ptr] } { [7 x ptr] [ptr null, ptr @_ZTI8TestData, ptr @_ZN8TestDataD1Ev, ptr @_ZN8TestDataD0Ev, ptr @__cxa_pure_virtual, ptr @__cxa_pure_virtual, ptr @__cxa_pure_virtual] }, align 8

; Function Attrs: mustprogress nounwind uwtable
define void @_ZN8TestDataD2Ev(ptr noundef nonnull align 8 dereferenceable(56) %0) unnamed_addr #0 align 2 {
  %2 = alloca ptr, align 8
  store ptr %0, ptr %2, align 8, !tbaa !3
  %3 = load ptr, ptr %2, align 8
  store ptr getelementptr inbounds inrange(-16, 40) ({ [7 x ptr] }, ptr @_ZTV8TestData, i32 0, i32 0, i32 2), ptr %3, align 8, !tbaa !10
  %4 = getelementptr inbounds nuw %class.TestData, ptr %3, i32 0, i32 2
  %5 = load ptr, ptr %4, align 8, !tbaa !16
  %6 = icmp eq ptr %5, null
  br i1 %6, label %11, label %7

7:                                                ; preds = %1
  %8 = load ptr, ptr %5, align 8, !tbaa !10
  %9 = getelementptr inbounds ptr, ptr %8, i64 1
  %10 = load ptr, ptr %9, align 8
  call void %10(ptr noundef nonnull align 8 dereferenceable(8) %5) #9
  br label %11

11:                                               ; preds = %7, %1
  %12 = getelementptr inbounds nuw %class.TestData, ptr %3, i32 0, i32 3
  %13 = load ptr, ptr %12, align 8, !tbaa !17
  %14 = icmp eq ptr %13, null
  br i1 %14, label %19, label %15

15:                                               ; preds = %11
  %16 = load ptr, ptr %13, align 8, !tbaa !10
  %17 = getelementptr inbounds ptr, ptr %16, i64 1
  %18 = load ptr, ptr %17, align 8
  call void %18(ptr noundef nonnull align 8 dereferenceable(8) %13) #9
  br label %19

19:                                               ; preds = %15, %11
  %20 = getelementptr inbounds nuw %class.TestData, ptr %3, i32 0, i32 4
  %21 = load ptr, ptr %20, align 8, !tbaa !18
  %22 = icmp eq ptr %21, null
  br i1 %22, label %27, label %23

23:                                               ; preds = %19
  %24 = load ptr, ptr %21, align 8, !tbaa !10
  %25 = getelementptr inbounds ptr, ptr %24, i64 1
  %26 = load ptr, ptr %25, align 8
  call void %26(ptr noundef nonnull align 8 dereferenceable(8) %21) #9
  br label %27

27:                                               ; preds = %23, %19
  ret void
}

; Function Attrs: mustprogress nounwind uwtable
define void @_ZN10RBTestDataD2Ev(ptr noundef nonnull align 8 dereferenceable(88) %0) unnamed_addr #0 align 2 personality ptr @__gxx_personality_v0 {
  %2 = alloca ptr, align 8
  store ptr %0, ptr %2, align 8, !tbaa !23
  %3 = load ptr, ptr %2, align 8
  store ptr getelementptr inbounds inrange(-16, 40) ({ [7 x ptr] }, ptr @_ZTV10RBTestData, i32 0, i32 0, i32 2), ptr %3, align 8, !tbaa !10
  %4 = getelementptr inbounds nuw %class.RBTestData, ptr %3, i32 0, i32 1
  %5 = load ptr, ptr %4, align 8, !tbaa !25
  invoke void @ures_close_77(ptr noundef %5)
          to label %6 unwind label %16

6:                                                ; preds = %1
  %7 = getelementptr inbounds nuw %class.RBTestData, ptr %3, i32 0, i32 2
  %8 = load ptr, ptr %7, align 8, !tbaa !28
  invoke void @ures_close_77(ptr noundef %8)
          to label %9 unwind label %16

9:                                                ; preds = %6
  %10 = getelementptr inbounds nuw %class.RBTestData, ptr %3, i32 0, i32 3
  %11 = load ptr, ptr %10, align 8, !tbaa !29
  invoke void @ures_close_77(ptr noundef %11)
          to label %12 unwind label %16

12:                                               ; preds = %9
  %13 = getelementptr inbounds nuw %class.RBTestData, ptr %3, i32 0, i32 4
  %14 = load ptr, ptr %13, align 8, !tbaa !30
  invoke void @ures_close_77(ptr noundef %14)
          to label %15 unwind label %16

15:                                               ; preds = %12
  call void @_ZN8TestDataD2Ev(ptr noundef nonnull align 8 dereferenceable(56) %3) #9
  ret void

16:                                               ; preds = %12, %9, %6, %1
  %17 = landingpad { ptr, i32 }
          catch ptr null
  %18 = extractvalue { ptr, i32 } %17, 0
  call void @__clang_call_terminate(ptr %18) #10
  unreachable
}