; Function Attrs: mustprogress nounwind uwtable
define void @_ZN10RBTestDataD2Ev(ptr noundef nonnull align 8 captures(none) dereferenceable(88) initializes((0, 8)) %0) unnamed_addr #1 align 2 personality ptr @__gxx_personality_v0 {
  store ptr getelementptr inbounds nuw inrange(-16, 40) (i8, ptr @_ZTV10RBTestData, i64 16), ptr %0, align 8, !tbaa !3
  %2 = getelementptr inbounds nuw i8, ptr %0, i64 56
  %3 = load ptr, ptr %2, align 8, !tbaa !16
  invoke void @ures_close_77(ptr noundef %3)
          to label %4 unwind label %37

4:                                                ; preds = %1
  %5 = getelementptr inbounds nuw i8, ptr %0, i64 64
  %6 = load ptr, ptr %5, align 8, !tbaa !19
  invoke void @ures_close_77(ptr noundef %6)
          to label %7 unwind label %37

7:                                                ; preds = %4
  %8 = getelementptr inbounds nuw i8, ptr %0, i64 72
  %9 = load ptr, ptr %8, align 8, !tbaa !22
  invoke void @ures_close_77(ptr noundef %9)
          to label %10 unwind label %37

10:                                               ; preds = %7
  %11 = getelementptr inbounds nuw i8, ptr %0, i64 80
  %12 = load ptr, ptr %11, align 8, !tbaa !24
  invoke void @ures_close_77(ptr noundef %12)
          to label %13 unwind label %37

13:                                               ; preds = %10
  store ptr getelementptr inbounds nuw inrange(-16, 40) (i8, ptr @_ZTV8TestData, i64 16), ptr %0, align 8, !tbaa !3
  %14 = getelementptr inbounds nuw i8, ptr %0, i64 16
  %15 = load ptr, ptr %14, align 8, !tbaa !13
  %16 = icmp eq ptr %15, null
  br i1 %16, label %21, label %17

17:                                               ; preds = %13
  %18 = load ptr, ptr %15, align 8, !tbaa !3
  %19 = getelementptr inbounds nuw i8, ptr %18, i64 8
  %20 = load ptr, ptr %19, align 8
  tail call void %20(ptr noundef nonnull align 8 dereferenceable(8) %15) #14
  br label %21

21:                                               ; preds = %17, %13
  %22 = getelementptr inbounds nuw i8, ptr %0, i64 24
  %23 = load ptr, ptr %22, align 8, !tbaa !14
  %24 = icmp eq ptr %23, null
  br i1 %24, label %29, label %25

25:                                               ; preds = %21
  %26 = load ptr, ptr %23, align 8, !tbaa !3
  %27 = getelementptr inbounds nuw i8, ptr %26, i64 8
  %28 = load ptr, ptr %27, align 8
  tail call void %28(ptr noundef nonnull align 8 dereferenceable(8) %23) #14
  br label %29

29:                                               ; preds = %25, %21
  %30 = getelementptr inbounds nuw i8, ptr %0, i64 32
  %31 = load ptr, ptr %30, align 8, !tbaa !15
  %32 = icmp eq ptr %31, null
  br i1 %32, label %_ZN8TestDataD2Ev.exit, label %33

33:                                               ; preds = %29
  %34 = load ptr, ptr %31, align 8, !tbaa !3
  %35 = getelementptr inbounds nuw i8, ptr %34, i64 8
  %36 = load ptr, ptr %35, align 8
  tail call void %36(ptr noundef nonnull align 8 dereferenceable(8) %31) #14
  br label %_ZN8TestDataD2Ev.exit

_ZN8TestDataD2Ev.exit:                            ; preds = %29, %33
  ret void

37:                                               ; preds = %10, %7, %4, %1
  %38 = landingpad { ptr, i32 }
          catch ptr null
  %39 = extractvalue { ptr, i32 } %38, 0
  tail call void @__clang_call_terminate(ptr %39) #15
  unreachable
}